target datalayout = "e-m:e-p270:32:32-p271:32:32-p272:64:64-i64:64-i128:128-f80:128-n8:16:32:64-S128"
target triple = "x86_64-pc-linux-gnu"

%"class.cv::Matx.0" = type { [16 x float] }
%"class.cv::Affine3" = type { %"class.cv::Matx.0" }
%"class.cv::kinfu::Volume" = type <{ ptr, float, float, %"class.cv::Affine3", float, [4 x i8] }>
%"class.cv::Matx.11" = type { [3 x i32] }
%"class.cv::Point3_" = type { float, float, float }

; Function Attrs: inlinehint mustprogress nounwind uwtable
define linkonce_odr hidden void @_ZN2cv7Point3_IfEC2Efff(ptr noundef nonnull align 4 dereferenceable(12) %0, float noundef %1, float noundef %2, float noundef %3) unnamed_addr #8 comdat align 2 {
  %5 = alloca ptr, align 8
  %6 = alloca float, align 4
  %7 = alloca float, align 4
  %8 = alloca float, align 4
  store ptr %0, ptr %5, align 8, !tbaa !111
  store float %1, ptr %6, align 4, !tbaa !8
  store float %2, ptr %7, align 4, !tbaa !8
  store float %3, ptr %8, align 4, !tbaa !8
  %9 = load ptr, ptr %5, align 8
  %10 = getelementptr inbounds nuw %"class.cv::Point3_", ptr %9, i32 0, i32 0
  %11 = load float, ptr %6, align 4, !tbaa !8
  store float %11, ptr %10, align 4, !tbaa !142
  %12 = getelementptr inbounds nuw %"class.cv::Point3_", ptr %9, i32 0, i32 1
  %13 = load float, ptr %7, align 4, !tbaa !8
  store float %13, ptr %12, align 4, !tbaa !144
  %14 = getelementptr inbounds nuw %"class.cv::Point3_", ptr %9, i32 0, i32 2
  %15 = load float, ptr %8, align 4, !tbaa !8
  store float %15, ptr %14, align 4, !tbaa !145
  ret void
}

; Function Attrs: inlinehint mustprogress nounwind uwtable
define linkonce_odr hidden noundef nonnull align 4 dereferenceable(4) ptr @_ZNK2cv3VecIiLi3EEixEi(ptr noundef nonnull align 4 dereferenceable(12) %0, i32 noundef %1) #8 comdat align 2 {
  %3 = alloca ptr, align 8
  %4 = alloca i32, align 4
  store ptr %0, ptr %3, align 8, !tbaa !169
  store i32 %1, ptr %4, align 4, !tbaa !12
  %5 = load ptr, ptr %3, align 8
  %6 = getelementptr inbounds nuw %"class.cv::Matx.11", ptr %5, i32 0, i32 0
  %7 = load i32, ptr %4, align 4, !tbaa !12
  %8 = sext i32 %7 to i64
  %9 = getelementptr inbounds [3 x i32], ptr %6, i64 0, i64 %8
  ret ptr %9
}

; Function Attrs: mustprogress uwtable
define hidden { <2 x float>, float } @_ZNK2cv5kinfu17HashTSDFVolumeCPU18voxelCoordToVolumeERKNS_3VecIiLi3EEE(ptr noundef nonnull align 8 dereferenceable(404) %0, ptr noundef nonnull align 4 dereferenceable(12) %1) #6 align 2 {
  %3 = alloca %"class.cv::Point3_", align 4
  %4 = alloca ptr, align 8
  %5 = alloca ptr, align 8
  %6 = alloca { <2 x float>, float }, align 8
  store ptr %0, ptr %4, align 8, !tbaa !50
  store ptr %1, ptr %5, align 8, !tbaa !169
  %7 = load ptr, ptr %4, align 8
  %8 = load ptr, ptr %5, align 8, !tbaa !169
  %9 = call noundef nonnull align 4 dereferenceable(4) ptr @_ZNK2cv3VecIiLi3EEixEi(ptr noundef nonnull align 4 dereferenceable(12) %8, i32 noundef 0)
  %10 = load i32, ptr %9, align 4, !tbaa !12
  %11 = sitofp i32 %10 to float
  %12 = getelementptr inbounds nuw %"class.cv::kinfu::Volume", ptr %7, i32 0, i32 1
  %13 = load float, ptr %12, align 8, !tbaa !29
  %14 = fmul float %11, %13
  %15 = load ptr, ptr %5, align 8, !tbaa !169
  %16 = call noundef nonnull align 4 dereferenceable(4) ptr @_ZNK2cv3VecIiLi3EEixEi(ptr noundef nonnull align 4 dereferenceable(12) %15, i32 noundef 1)
  %17 = load i32, ptr %16, align 4, !tbaa !12
  %18 = sitofp i32 %17 to float
  %19 = getelementptr inbounds nuw %"class.cv::kinfu::Volume", ptr %7, i32 0, i32 1
  %20 = load float, ptr %19, align 8, !tbaa !29
  %21 = fmul float %18, %20
  %22 = load ptr, ptr %5, align 8, !tbaa !169
  %23 = call noundef nonnull align 4 dereferenceable(4) ptr @_ZNK2cv3VecIiLi3EEixEi(ptr noundef nonnull align 4 dereferenceable(12) %22, i32 noundef 2)
  %24 = load i32, ptr %23, align 4, !tbaa !12
  %25 = sitofp i32 %24 to float
  %26 = getelementptr inbounds nuw %"class.cv::kinfu::Volume", ptr %7, i32 0, i32 1
  %27 = load float, ptr %26, align 8, !tbaa !29
  %28 = fmul float %25, %27
  call void @_ZN2cv7Point3_IfEC2Efff(ptr noundef nonnull align 4 dereferenceable(12) %3, float noundef %14, float noundef %21, float noundef %28)
  call void @llvm.memcpy.p0.p0.i64(ptr align 8 %6, ptr align 4 %3, i64 12, i1 false)
  %29 = load { <2 x float>, float }, ptr %6, align 8
  ret { <2 x float>, float } %29
}